; ModuleID = '24/2268.c'
source_filename = "24/2268.c"
target datalayout = "e-m:e-p270:32:32-p271:32:32-p272:64:64-i64:64-f80:128-n8:16:32:64-S128"
target triple = "x86_64-pc-linux-gnu"

@.str = private unnamed_addr constant [4 x i8] c"%s\0A\00", align 1

; Function Attrs: noinline nounwind uwtable
define dso_local void @main() #0 {
  %1 = alloca i32, align 4
  %2 = alloca i32, align 4
  %3 = alloca i32, align 4
  %4 = alloca i32, align 4
  %5 = alloca i32, align 4
  %6 = alloca i32, align 4
  %7 = alloca [100 x i32], align 16
  %8 = alloca i32, align 4
  %9 = alloca [100 x i32], align 16
  %10 = alloca [100 x i32], align 16
  %11 = alloca [1000 x i8], align 16
  %12 = alloca [100 x [100 x i8]], align 16
  %13 = alloca [1000 x i8], align 16
  store i32 0, i32* %6, align 4
  %14 = bitcast [100 x i32]* %7 to i8*
  call void @llvm.memset.p0i8.i64(i8* align 16 %14, i8 0, i64 400, i1 false)
  %15 = bitcast [100 x i32]* %9 to i8*
  call void @llvm.memset.p0i8.i64(i8* align 16 %15, i8 0, i64 400, i1 false)
  %16 = bitcast [100 x i32]* %10 to i8*
  call void @llvm.memset.p0i8.i64(i8* align 16 %16, i8 0, i64 400, i1 false)
  store i32 0, i32* %1, align 4
  br label %17

17:                                               ; preds = %35, %0
  %18 = load i32, i32* %1, align 4
  %19 = icmp slt i32 %18, 100
  br i1 %19, label %20, label %38

20:                                               ; preds = %17
  store i32 0, i32* %2, align 4
  br label %21

21:                                               ; preds = %31, %20
  %22 = load i32, i32* %2, align 4
  %23 = icmp slt i32 %22, 100
  br i1 %23, label %24, label %34

24:                                               ; preds = %21
  %25 = load i32, i32* %1, align 4
  %26 = sext i32 %25 to i64
  %27 = getelementptr inbounds [100 x [100 x i8]], [100 x [100 x i8]]* %12, i64 0, i64 %26
  %28 = load i32, i32* %2, align 4
  %29 = sext i32 %28 to i64
  %30 = getelementptr inbounds [100 x i8], [100 x i8]* %27, i64 0, i64 %29
  store i8 0, i8* %30, align 1
  br label %31

31:                                               ; preds = %24
  %32 = load i32, i32* %2, align 4
  %33 = add nsw i32 %32, 1
  store i32 %33, i32* %2, align 4
  br label %21

34:                                               ; preds = %21
  br label %35

35:                                               ; preds = %34
  %36 = load i32, i32* %1, align 4
  %37 = add nsw i32 %36, 1
  store i32 %37, i32* %1, align 4
  br label %17

38:                                               ; preds = %17
  store i32 0, i32* %1, align 4
  br label %39

39:                                               ; preds = %46, %38
  %40 = load i32, i32* %1, align 4
  %41 = icmp slt i32 %40, 1000
  br i1 %41, label %42, label %49

42:                                               ; preds = %39
  %43 = load i32, i32* %1, align 4
  %44 = sext i32 %43 to i64
  %45 = getelementptr inbounds [1000 x i8], [1000 x i8]* %13, i64 0, i64 %44
  store i8 0, i8* %45, align 1
  br label %46

46:                                               ; preds = %42
  %47 = load i32, i32* %1, align 4
  %48 = add nsw i32 %47, 1
  store i32 %48, i32* %1, align 4
  br label %39

49:                                               ; preds = %39
  %50 = getelementptr inbounds [1000 x i8], [1000 x i8]* %11, i64 0, i64 0
  %51 = call i32 (i8*, ...) bitcast (i32 (...)* @gets to i32 (i8*, ...)*)(i8* %50)
  %52 = getelementptr inbounds [1000 x i8], [1000 x i8]* %11, i64 0, i64 0
  %53 = call i64 @strlen(i8* %52) #4
  %54 = trunc i64 %53 to i32
  store i32 %54, i32* %3, align 4
  store i32 0, i32* %1, align 4
  br label %55

55:                                               ; preds = %126, %49
  %56 = load i32, i32* %1, align 4
  %57 = load i32, i32* %3, align 4
  %58 = icmp slt i32 %56, %57
  br i1 %58, label %59, label %129

59:                                               ; preds = %55
  %60 = load i32, i32* %1, align 4
  %61 = sext i32 %60 to i64
  %62 = getelementptr inbounds [1000 x i8], [1000 x i8]* %11, i64 0, i64 %61
  %63 = load i8, i8* %62, align 1
  %64 = sext i8 %63 to i32
  %65 = icmp ne i32 %64, 32
  br i1 %65, label %66, label %125

66:                                               ; preds = %59
  %67 = load i32, i32* %1, align 4
  %68 = sext i32 %67 to i64
  %69 = getelementptr inbounds [1000 x i8], [1000 x i8]* %11, i64 0, i64 %68
  %70 = load i8, i8* %69, align 1
  %71 = sext i8 %70 to i32
  %72 = icmp ne i32 %71, 44
  br i1 %72, label %73, label %125

73:                                               ; preds = %66
  %74 = load i32, i32* %6, align 4
  %75 = add nsw i32 %74, 1
  store i32 %75, i32* %6, align 4
  %76 = load i32, i32* %1, align 4
  store i32 %76, i32* %2, align 4
  br label %77

77:                                               ; preds = %121, %73
  %78 = load i32, i32* %2, align 4
  %79 = load i32, i32* %3, align 4
  %80 = icmp slt i32 %78, %79
  br i1 %80, label %81, label %124

81:                                               ; preds = %77
  %82 = load i32, i32* %2, align 4
  %83 = sext i32 %82 to i64
  %84 = getelementptr inbounds [1000 x i8], [1000 x i8]* %11, i64 0, i64 %83
  %85 = load i8, i8* %84, align 1
  %86 = sext i8 %85 to i32
  %87 = icmp ne i32 %86, 32
  br i1 %87, label %88, label %119

88:                                               ; preds = %81
  %89 = load i32, i32* %2, align 4
  %90 = sext i32 %89 to i64
  %91 = getelementptr inbounds [1000 x i8], [1000 x i8]* %11, i64 0, i64 %90
  %92 = load i8, i8* %91, align 1
  %93 = sext i8 %92 to i32
  %94 = icmp ne i32 %93, 44
  br i1 %94, label %95, label %119

95:                                               ; preds = %88
  %96 = load i32, i32* %2, align 4
  %97 = sext i32 %96 to i64
  %98 = getelementptr inbounds [1000 x i8], [1000 x i8]* %11, i64 0, i64 %97
  %99 = load i8, i8* %98, align 1
  %100 = load i32, i32* %6, align 4
  %101 = sext i32 %100 to i64
  %102 = getelementptr inbounds [100 x [100 x i8]], [100 x [100 x i8]]* %12, i64 0, i64 %101
  %103 = load i32, i32* %2, align 4
  %104 = load i32, i32* %1, align 4
  %105 = sub nsw i32 %103, %104
  %106 = sext i32 %105 to i64
  %107 = getelementptr inbounds [100 x i8], [100 x i8]* %102, i64 0, i64 %106
  store i8 %99, i8* %107, align 1
  %108 = load i32, i32* %2, align 4
  %109 = sext i32 %108 to i64
  %110 = getelementptr inbounds [1000 x i8], [1000 x i8]* %11, i64 0, i64 %109
  store i8 44, i8* %110, align 1
  %111 = load i32, i32* %6, align 4
  %112 = sext i32 %111 to i64
  %113 = getelementptr inbounds [100 x i32], [100 x i32]* %9, i64 0, i64 %112
  %114 = load i32, i32* %113, align 4
  %115 = add nsw i32 %114, 1
  %116 = load i32, i32* %6, align 4
  %117 = sext i32 %116 to i64
  %118 = getelementptr inbounds [100 x i32], [100 x i32]* %9, i64 0, i64 %117
  store i32 %115, i32* %118, align 4
  br label %120

119:                                              ; preds = %88, %81
  br label %124

120:                                              ; preds = %95
  br label %121

121:                                              ; preds = %120
  %122 = load i32, i32* %2, align 4
  %123 = add nsw i32 %122, 1
  store i32 %123, i32* %2, align 4
  br label %77

124:                                              ; preds = %119, %77
  br label %125

125:                                              ; preds = %124, %66, %59
  br label %126

126:                                              ; preds = %125
  %127 = load i32, i32* %1, align 4
  %128 = add nsw i32 %127, 1
  store i32 %128, i32* %1, align 4
  br label %55

129:                                              ; preds = %55
  store i32 1, i32* %8, align 4
  store i32 1, i32* %1, align 4
  br label %130

130:                                              ; preds = %149, %129
  %131 = load i32, i32* %1, align 4
  %132 = load i32, i32* %6, align 4
  %133 = icmp slt i32 %131, %132
  br i1 %133, label %134, label %152

134:                                              ; preds = %130
  %135 = load i32, i32* %1, align 4
  %136 = add nsw i32 %135, 1
  %137 = sext i32 %136 to i64
  %138 = getelementptr inbounds [100 x i32], [100 x i32]* %9, i64 0, i64 %137
  %139 = load i32, i32* %138, align 4
  %140 = load i32, i32* %8, align 4
  %141 = sext i32 %140 to i64
  %142 = getelementptr inbounds [100 x i32], [100 x i32]* %9, i64 0, i64 %141
  %143 = load i32, i32* %142, align 4
  %144 = icmp sgt i32 %139, %143
  br i1 %144, label %145, label %148

145:                                              ; preds = %134
  %146 = load i32, i32* %1, align 4
  %147 = add nsw i32 %146, 1
  store i32 %147, i32* %8, align 4
  br label %148

148:                                              ; preds = %145, %134
  br label %149

149:                                              ; preds = %148
  %150 = load i32, i32* %1, align 4
  %151 = add nsw i32 %150, 1
  store i32 %151, i32* %1, align 4
  br label %130

152:                                              ; preds = %130
  %153 = load i32, i32* %8, align 4
  %154 = sext i32 %153 to i64
  %155 = getelementptr inbounds [100 x [100 x i8]], [100 x [100 x i8]]* %12, i64 0, i64 %154
  %156 = getelementptr inbounds [100 x i8], [100 x i8]* %155, i64 0, i64 0
  %157 = call i32 (i8*, ...) @printf(i8* getelementptr inbounds ([4 x i8], [4 x i8]* @.str, i64 0, i64 0), i8* %156)
  store i32 1, i32* %8, align 4
  store i32 1, i32* %1, align 4
  br label %158

158:                                              ; preds = %177, %152
  %159 = load i32, i32* %1, align 4
  %160 = load i32, i32* %6, align 4
  %161 = icmp slt i32 %159, %160
  br i1 %161, label %162, label %180

162:                                              ; preds = %158
  %163 = load i32, i32* %1, align 4
  %164 = add nsw i32 %163, 1
  %165 = sext i32 %164 to i64
  %166 = getelementptr inbounds [100 x i32], [100 x i32]* %9, i64 0, i64 %165
  %167 = load i32, i32* %166, align 4
  %168 = load i32, i32* %8, align 4
  %169 = sext i32 %168 to i64
  %170 = getelementptr inbounds [100 x i32], [100 x i32]* %9, i64 0, i64 %169
  %171 = load i32, i32* %170, align 4
  %172 = icmp slt i32 %167, %171
  br i1 %172, label %173, label %176

173:                                              ; preds = %162
  %174 = load i32, i32* %1, align 4
  %175 = add nsw i32 %174, 1
  store i32 %175, i32* %8, align 4
  br label %176

176:                                              ; preds = %173, %162
  br label %177

177:                                              ; preds = %176
  %178 = load i32, i32* %1, align 4
  %179 = add nsw i32 %178, 1
  store i32 %179, i32* %1, align 4
  br label %158

180:                                              ; preds = %158
  %181 = load i32, i32* %8, align 4
  %182 = sext i32 %181 to i64
  %183 = getelementptr inbounds [100 x [100 x i8]], [100 x [100 x i8]]* %12, i64 0, i64 %182
  %184 = getelementptr inbounds [100 x i8], [100 x i8]* %183, i64 0, i64 0
  %185 = call i32 (i8*, ...) @printf(i8* getelementptr inbounds ([4 x i8], [4 x i8]* @.str, i64 0, i64 0), i8* %184)
  ret void
}

; Function Attrs: argmemonly nounwind willreturn
declare void @llvm.memset.p0i8.i64(i8* nocapture writeonly, i8, i64, i1 immarg) #1

declare dso_local i32 @gets(...) #2

; Function Attrs: nounwind readonly
declare dso_local i64 @strlen(i8*) #3

declare dso_local i32 @printf(i8*, ...) #2


!llvm.module.flags = !{!0}
!llvm.ident = !{!1}

!0 = !{i32 1, !"wchar_size", i32 4}
!1 = !{!"clang version 10.0.0-4ubuntu1 "}
